	.cpu cortex-m3
	.eabi_attribute 20, 1
	.eabi_attribute 21, 1
	.eabi_attribute 23, 3
	.eabi_attribute 24, 1
	.eabi_attribute 25, 1
	.eabi_attribute 26, 1
	.eabi_attribute 30, 6
	.eabi_attribute 34, 1
	.eabi_attribute 18, 4
	.file	"kernel.c"
	.text
.Ltext0:
	.cfi_sections	.debug_frame
	.align	1
	.arch armv7-m
	.syntax unified
	.thumb
	.thumb_func
	.fpu softvfp
	.type	__ISB, %function
__ISB:
.LFB8:
	.file 1 "/home/witek/CODE/arm/STM32F10x_StdPeriph_Lib_V3.5.0/Libraries/CMSIS/CM3/CoreSupport/core_cm3.h"
	.loc 1 1214 51
	.cfi_startproc
	@ args = 0, pretend = 0, frame = 0
	@ frame_needed = 1, uses_anonymous_args = 0
	@ link register save eliminated.
	push	{r7}
	.cfi_def_cfa_offset 4
	.cfi_offset 7, -4
	add	r7, sp, #0
	.cfi_def_cfa_register 7
	.loc 1 1214 53
	.syntax unified
@ 1214 "/home/witek/CODE/arm/STM32F10x_StdPeriph_Lib_V3.5.0/Libraries/CMSIS/CM3/CoreSupport/core_cm3.h" 1
	isb
@ 0 "" 2
	.loc 1 1214 1
	.thumb
	.syntax unified
	nop
	mov	sp, r7
	.cfi_def_cfa_register 13
	@ sp needed
	pop	{r7}
	.cfi_restore 7
	.cfi_def_cfa_offset 0
	bx	lr
	.cfi_endproc
.LFE8:
	.size	__ISB, .-__ISB
	.align	1
	.syntax unified
	.thumb
	.thumb_func
	.fpu softvfp
	.type	NVIC_SetPriority, %function
NVIC_SetPriority:
.LFB20:
	.loc 1 1587 1
	.cfi_startproc
	@ args = 0, pretend = 0, frame = 8
	@ frame_needed = 1, uses_anonymous_args = 0
	@ link register save eliminated.
	push	{r7}
	.cfi_def_cfa_offset 4
	.cfi_offset 7, -4
	sub	sp, sp, #12
	.cfi_def_cfa_offset 16
	add	r7, sp, #0
	.cfi_def_cfa_register 7
	mov	r3, r0
	str	r1, [r7]
	strb	r3, [r7, #7]
	.loc 1 1588 5
	ldrsb	r3, [r7, #7]
	cmp	r3, #0
	bge	.L3
	.loc 1 1589 55
	ldr	r3, [r7]
	uxtb	r2, r3
	.loc 1 1589 8
	ldr	r1, .L6
	.loc 1 1589 32
	ldrb	r3, [r7, #7]	@ zero_extendqisi2
	and	r3, r3, #15
	.loc 1 1589 38
	subs	r3, r3, #4
	.loc 1 1589 55
	lsls	r2, r2, #4
	uxtb	r2, r2
	.loc 1 1589 42
	add	r3, r3, r1
	strb	r2, [r3, #24]
	.loc 1 1592 1
	b	.L5
.L3:
	.loc 1 1591 45
	ldr	r3, [r7]
	uxtb	r2, r3
	.loc 1 1591 9
	ldr	r1, .L6+4
	.loc 1 1591 14
	ldrsb	r3, [r7, #7]
	.loc 1 1591 45
	lsls	r2, r2, #4
	uxtb	r2, r2
	.loc 1 1591 32
	add	r3, r3, r1
	strb	r2, [r3, #768]
.L5:
	.loc 1 1592 1
	nop
	adds	r7, r7, #12
	.cfi_def_cfa_offset 4
	mov	sp, r7
	.cfi_def_cfa_register 13
	@ sp needed
	pop	{r7}
	.cfi_restore 7
	.cfi_def_cfa_offset 0
	bx	lr
.L7:
	.align	2
.L6:
	.word	-536810240
	.word	-536813312
	.cfi_endproc
.LFE20:
	.size	NVIC_SetPriority, .-NVIC_SetPriority
	.align	1
	.syntax unified
	.thumb
	.thumb_func
	.fpu softvfp
	.type	SysTick_Config, %function
SysTick_Config:
.LFB24:
	.loc 1 1695 1
	.cfi_startproc
	@ args = 0, pretend = 0, frame = 8
	@ frame_needed = 1, uses_anonymous_args = 0
	push	{r7, lr}
	.cfi_def_cfa_offset 8
	.cfi_offset 7, -8
	.cfi_offset 14, -4
	sub	sp, sp, #8
	.cfi_def_cfa_offset 16
	add	r7, sp, #0
	.cfi_def_cfa_register 7
	str	r0, [r7, #4]
	.loc 1 1696 6
	ldr	r3, [r7, #4]
	cmp	r3, #16777216
	bcc	.L9
	.loc 1 1696 48 discriminator 1
	movs	r3, #1
	b	.L10
.L9:
	.loc 1 1698 27
	ldr	r3, [r7, #4]
	bic	r3, r3, #-16777216
	.loc 1 1698 10
	ldr	r2, .L11
	.loc 1 1698 54
	subs	r3, r3, #1
	.loc 1 1698 18
	str	r3, [r2, #4]
	.loc 1 1699 3
	movs	r1, #15
	mov	r0, #-1
	bl	NVIC_SetPriority
	.loc 1 1700 10
	ldr	r3, .L11
	.loc 1 1700 18
	movs	r2, #0
	str	r2, [r3, #8]
	.loc 1 1701 10
	ldr	r3, .L11
	.loc 1 1701 18
	movs	r2, #7
	str	r2, [r3]
	.loc 1 1704 10
	movs	r3, #0
.L10:
	.loc 1 1705 1
	mov	r0, r3
	adds	r7, r7, #8
	.cfi_def_cfa_offset 8
	mov	sp, r7
	.cfi_def_cfa_register 13
	@ sp needed
	pop	{r7, pc}
.L12:
	.align	2
.L11:
	.word	-536813552
	.cfi_endproc
.LFE24:
	.size	SysTick_Config, .-SysTick_Config
	.comm	i,4,4
	.comm	current_task_ID,4,4
	.comm	next_task_ID,4,4
	.comm	task_id_adder,4,4
	.comm	shared_value,4,4
	.comm	svc_number,4,4
	.comm	PrintBuf,4,4
	.align	1
	.global	SelectNextTask
	.syntax unified
	.thumb
	.thumb_func
	.fpu softvfp
	.type	SelectNextTask, %function
SelectNextTask:
.LFB29:
	.file 2 "src/kernel.c"
	.loc 2 13 1
	.cfi_startproc
	@ args = 0, pretend = 0, frame = 0
	@ frame_needed = 1, uses_anonymous_args = 0
	@ link register save eliminated.
	push	{r7}
	.cfi_def_cfa_offset 4
	.cfi_offset 7, -4
	add	r7, sp, #0
	.cfi_def_cfa_register 7
	.loc 2 14 18
	ldr	r3, .L16
	ldr	r3, [r3]
	ldr	r2, .L16+4
	str	r3, [r2]
.L15:
	.loc 2 17 37
	ldr	r3, .L16+4
	ldr	r3, [r3]
	adds	r3, r3, #1
	.loc 2 17 22
	ldr	r2, .L16+4
	str	r3, [r2]
	.loc 2 18 26
	ldr	r3, .L16+4
	ldr	r3, [r3]
	.loc 2 18 12
	cmp	r3, #5
	bne	.L14
	.loc 2 20 26
	ldr	r3, .L16+4
	movs	r2, #0
	str	r2, [r3]
.L14:
	.loc 2 22 36
	ldr	r3, .L16+4
	ldr	r2, [r3]
	ldr	r1, .L16+8
	mov	r3, r2
	lsls	r3, r3, #1
	add	r3, r3, r2
	lsls	r3, r3, #3
	add	r3, r3, r1
	adds	r3, r3, #16
	ldrb	r3, [r3]	@ zero_extendqisi2
	.loc 2 22 5
	cmp	r3, #0
	beq	.L15
	.loc 2 22 82 discriminator 1
	ldr	r3, .L16+4
	ldr	r2, [r3]
	ldr	r1, .L16+8
	mov	r3, r2
	lsls	r3, r3, #1
	add	r3, r3, r2
	lsls	r3, r3, #3
	add	r3, r3, r1
	adds	r3, r3, #16
	ldrb	r3, [r3]	@ zero_extendqisi2
	.loc 2 22 57 discriminator 1
	cmp	r3, #4
	beq	.L15
	.loc 2 22 128 discriminator 2
	ldr	r3, .L16+4
	ldr	r2, [r3]
	ldr	r1, .L16+8
	mov	r3, r2
	lsls	r3, r3, #1
	add	r3, r3, r2
	lsls	r3, r3, #3
	add	r3, r3, r1
	adds	r3, r3, #16
	ldrb	r3, [r3]	@ zero_extendqisi2
	.loc 2 22 103 discriminator 2
	cmp	r3, #2
	beq	.L15
	.loc 2 23 1
	nop
	mov	sp, r7
	.cfi_def_cfa_register 13
	@ sp needed
	pop	{r7}
	.cfi_restore 7
	.cfi_def_cfa_offset 0
	bx	lr
.L17:
	.align	2
.L16:
	.word	current_task_ID
	.word	next_task_ID
	.word	threads
	.cfi_endproc
.LFE29:
	.size	SelectNextTask, .-SelectNextTask
	.align	1
	.global	CreateTask
	.syntax unified
	.thumb
	.thumb_func
	.fpu softvfp
	.type	CreateTask, %function
CreateTask:
.LFB30:
	.loc 2 26 1
	.cfi_startproc
	@ args = 0, pretend = 0, frame = 24
	@ frame_needed = 1, uses_anonymous_args = 0
	@ link register save eliminated.
	push	{r7}
	.cfi_def_cfa_offset 4
	.cfi_offset 7, -4
	sub	sp, sp, #28
	.cfi_def_cfa_offset 32
	add	r7, sp, #0
	.cfi_def_cfa_register 7
	str	r0, [r7, #12]
	str	r1, [r7, #8]
	str	r2, [r7, #4]
	.loc 2 28 12
	ldr	r3, .L24
	movs	r2, #0
	str	r2, [r3]
	.loc 2 28 5
	b	.L19
.L23:
	.loc 2 30 24
	ldr	r3, .L24
	ldr	r2, [r3]
	ldr	r1, .L24+4
	mov	r3, r2
	lsls	r3, r3, #1
	add	r3, r3, r2
	lsls	r3, r3, #3
	add	r3, r3, r1
	adds	r3, r3, #16
	ldrb	r3, [r3]	@ zero_extendqisi2
	.loc 2 30 12
	cmp	r3, #0
	beq	.L20
	.loc 2 30 59 discriminator 1
	ldr	r3, .L24
	ldr	r2, [r3]
	ldr	r1, .L24+4
	mov	r3, r2
	lsls	r3, r3, #1
	add	r3, r3, r2
	lsls	r3, r3, #3
	add	r3, r3, r1
	adds	r3, r3, #16
	ldrb	r3, [r3]	@ zero_extendqisi2
	.loc 2 30 45 discriminator 1
	cmp	r3, #4
	bne	.L21
.L20:
	.loc 2 32 23
	ldr	r3, .L24
	ldr	r2, [r3]
	.loc 2 32 30
	ldr	r1, .L24+4
	mov	r3, r2
	lsls	r3, r3, #1
	add	r3, r3, r2
	lsls	r3, r3, #3
	add	r3, r3, r1
	adds	r3, r3, #16
	movs	r2, #1
	strb	r2, [r3]
	.loc 2 33 23
	ldr	r3, .L24
	ldr	r2, [r3]
	.loc 2 33 35
	ldr	r1, .L24+4
	mov	r3, r2
	lsls	r3, r3, #1
	add	r3, r3, r2
	lsls	r3, r3, #3
	add	r3, r3, r1
	adds	r3, r3, #20
	ldr	r2, [r7, #12]
	str	r2, [r3]
	.loc 2 34 60
	ldr	r3, .L24
	ldr	r2, [r3]
	ldr	r1, .L24+4
	mov	r3, r2
	lsls	r3, r3, #1
	add	r3, r3, r2
	lsls	r3, r3, #3
	add	r3, r3, r1
	ldr	r3, [r3]
	.loc 2 34 27
	str	r3, [r7, #20]
	.loc 2 35 31
	ldr	r2, [r7, #8]
	ldr	r3, [r7, #20]
	str	r2, [r3]
	.loc 2 36 31
	ldr	r2, [r7, #4]
	ldr	r3, [r7, #20]
	str	r2, [r3, #4]
	.loc 2 37 31
	ldr	r3, [r7, #20]
	movs	r2, #0
	str	r2, [r3, #8]
	.loc 2 38 31
	ldr	r3, [r7, #20]
	movs	r2, #0
	str	r2, [r3, #12]
	.loc 2 39 32
	ldr	r3, [r7, #20]
	movs	r2, #0
	str	r2, [r3, #16]
	.loc 2 40 31
	ldr	r2, [r7, #12]
	ldr	r3, [r7, #20]
	str	r2, [r3, #24]
	.loc 2 41 31
	ldr	r2, .L24+8
	ldr	r3, [r7, #20]
	str	r2, [r3, #20]
	.loc 2 42 32
	ldr	r3, [r7, #20]
	mov	r2, #553648128
	str	r2, [r3, #28]
	.loc 2 43 13
	b	.L22
.L21:
	.loc 2 28 40 discriminator 2
	ldr	r3, .L24
	ldr	r3, [r3]
	adds	r3, r3, #1
	ldr	r2, .L24
	str	r3, [r2]
.L19:
	.loc 2 28 19 discriminator 1
	ldr	r3, .L24
	ldr	r3, [r3]
	.loc 2 28 5 discriminator 1
	cmp	r3, #4
	bls	.L23
.L22:
	.loc 2 46 1
	nop
	adds	r7, r7, #28
	.cfi_def_cfa_offset 4
	mov	sp, r7
	.cfi_def_cfa_register 13
	@ sp needed
	pop	{r7}
	.cfi_restore 7
	.cfi_def_cfa_offset 0
	bx	lr
.L25:
	.align	2
.L24:
	.word	i
	.word	threads
	.word	CloseThread
	.cfi_endproc
.LFE30:
	.size	CreateTask, .-CreateTask
	.align	1
	.global	RunOS
	.syntax unified
	.thumb
	.thumb_func
	.fpu softvfp
	.type	RunOS, %function
RunOS:
.LFB31:
	.loc 2 49 1
	.cfi_startproc
	@ args = 0, pretend = 0, frame = 8
	@ frame_needed = 1, uses_anonymous_args = 0
	push	{r7, lr}
	.cfi_def_cfa_offset 8
	.cfi_offset 7, -8
	.cfi_offset 14, -4
	sub	sp, sp, #8
	.cfi_def_cfa_offset 16
	add	r7, sp, #0
	.cfi_def_cfa_register 7
	.loc 2 50 23
	movw	r0, #36000
	bl	SysTick_Config
	str	r0, [r7, #4]
	.loc 2 51 5
	movs	r1, #255
	mvn	r0, #1
	bl	NVIC_SetPriority
	.loc 2 52 21
	ldr	r3, .L28
	movs	r2, #0
	str	r2, [r3]
	.loc 2 53 5
	movs	r3, #3
	.syntax unified
@ 53 "src/kernel.c" 1
	MSR control, r3
@ 0 "" 2
	.loc 2 56 5
	.thumb
	.syntax unified
	nop
	.loc 2 57 1
	adds	r7, r7, #8
	.cfi_def_cfa_offset 8
	mov	sp, r7
	.cfi_def_cfa_register 13
	@ sp needed
	pop	{r7, pc}
.L29:
	.align	2
.L28:
	.word	current_task_ID
	.cfi_endproc
.LFE31:
	.size	RunOS, .-RunOS
	.align	1
	.global	CloseThread
	.syntax unified
	.thumb
	.thumb_func
	.fpu softvfp
	.type	CloseThread, %function
CloseThread:
.LFB32:
	.loc 2 60 1
	.cfi_startproc
	@ args = 0, pretend = 0, frame = 0
	@ frame_needed = 1, uses_anonymous_args = 0
	@ link register save eliminated.
	push	{r7}
	.cfi_def_cfa_offset 4
	.cfi_offset 7, -4
	add	r7, sp, #0
	.cfi_def_cfa_register 7
	.loc 2 61 5
	.syntax unified
@ 61 "src/kernel.c" 1
	svc #0
@ 0 "" 2
	.thumb
	.syntax unified
.L31:
	.loc 2 62 11 discriminator 1
	b	.L31
	.cfi_endproc
.LFE32:
	.size	CloseThread, .-CloseThread
	.align	1
	.global	InitThreads
	.syntax unified
	.thumb
	.thumb_func
	.fpu softvfp
	.type	InitThreads, %function
InitThreads:
.LFB33:
	.loc 2 69 1
	.cfi_startproc
	@ args = 0, pretend = 0, frame = 8
	@ frame_needed = 1, uses_anonymous_args = 0
	push	{r7, lr}
	.cfi_def_cfa_offset 8
	.cfi_offset 7, -8
	.cfi_offset 14, -4
	sub	sp, sp, #8
	.cfi_def_cfa_offset 16
	add	r7, sp, #0
	.cfi_def_cfa_register 7
	.loc 2 70 28
	bl	__get_MSP
	str	r0, [r7, #4]
	.loc 2 73 12
	ldr	r3, .L35
	movs	r2, #0
	str	r2, [r3]
	.loc 2 73 5
	b	.L33
.L34:
	.loc 2 75 41 discriminator 3
	ldr	r3, .L35
	ldr	r3, [r3]
	adds	r3, r3, #1
	lsls	r3, r3, #8
	.loc 2 75 17 discriminator 3
	ldr	r2, [r7, #4]
	subs	r3, r2, r3
	str	r3, [r7]
	.loc 2 76 19 discriminator 3
	ldr	r3, .L35
	ldr	r2, [r3]
	.loc 2 76 33 discriminator 3
	ldr	r1, .L35+4
	mov	r3, r2
	lsls	r3, r3, #1
	add	r3, r3, r2
	lsls	r3, r3, #3
	add	r3, r3, r1
	adds	r3, r3, #4
	ldr	r2, [r7]
	str	r2, [r3]
	.loc 2 77 50 discriminator 3
	ldr	r3, .L35
	ldr	r1, [r3]
	.loc 2 77 19 discriminator 3
	ldr	r3, .L35
	ldr	r2, [r3]
	.loc 2 77 50 discriminator 3
	ldr	r0, .L35+4
	mov	r3, r1
	lsls	r3, r3, #1
	add	r3, r3, r1
	lsls	r3, r3, #3
	add	r3, r3, r0
	adds	r3, r3, #4
	ldr	r1, [r3]
	.loc 2 77 38 discriminator 3
	ldr	r0, .L35+4
	mov	r3, r2
	lsls	r3, r3, #1
	add	r3, r3, r2
	lsls	r3, r3, #3
	add	r3, r3, r0
	str	r1, [r3]
	.loc 2 78 48 discriminator 3
	ldr	r3, .L35
	ldr	r2, [r3]
	ldr	r1, .L35+4
	mov	r3, r2
	lsls	r3, r3, #1
	add	r3, r3, r2
	lsls	r3, r3, #3
	add	r3, r3, r1
	adds	r3, r3, #4
	ldr	r1, [r3]
	.loc 2 78 19 discriminator 3
	ldr	r3, .L35
	ldr	r2, [r3]
	.loc 2 78 48 discriminator 3
	mov	r0, r1
	.loc 2 78 36 discriminator 3
	ldr	r1, .L35+4
	mov	r3, r2
	lsls	r3, r3, #1
	add	r3, r3, r2
	lsls	r3, r3, #3
	add	r3, r3, r1
	adds	r3, r3, #8
	str	r0, [r3]
	.loc 2 79 53 discriminator 3
	ldr	r3, .L35
	ldr	r2, [r3]
	ldr	r1, .L35+4
	mov	r3, r2
	lsls	r3, r3, #1
	add	r3, r3, r2
	lsls	r3, r3, #3
	add	r3, r3, r1
	ldr	r1, [r3]
	.loc 2 79 19 discriminator 3
	ldr	r3, .L35
	ldr	r2, [r3]
	.loc 2 79 53 discriminator 3
	mov	r0, r1
	.loc 2 79 41 discriminator 3
	ldr	r1, .L35+4
	mov	r3, r2
	lsls	r3, r3, #1
	add	r3, r3, r2
	lsls	r3, r3, #3
	add	r3, r3, r1
	adds	r3, r3, #12
	str	r0, [r3]
	.loc 2 80 19 discriminator 3
	ldr	r3, .L35
	ldr	r2, [r3]
	.loc 2 80 26 discriminator 3
	ldr	r1, .L35+4
	mov	r3, r2
	lsls	r3, r3, #1
	add	r3, r3, r2
	lsls	r3, r3, #3
	add	r3, r3, r1
	adds	r3, r3, #16
	movs	r2, #0
	strb	r2, [r3]
	.loc 2 73 40 discriminator 3
	ldr	r3, .L35
	ldr	r3, [r3]
	adds	r3, r3, #1
	ldr	r2, .L35
	str	r3, [r2]
.L33:
	.loc 2 73 19 discriminator 1
	ldr	r3, .L35
	ldr	r3, [r3]
	.loc 2 73 5 discriminator 1
	cmp	r3, #4
	bls	.L34
	.loc 2 82 1
	nop
	adds	r7, r7, #8
	.cfi_def_cfa_offset 8
	mov	sp, r7
	.cfi_def_cfa_register 13
	@ sp needed
	pop	{r7, pc}
.L36:
	.align	2
.L35:
	.word	i
	.word	threads
	.cfi_endproc
.LFE33:
	.size	InitThreads, .-InitThreads
	.align	1
	.global	PendSV_Handler
	.syntax unified
	.thumb
	.thumb_func
	.fpu softvfp
	.type	PendSV_Handler, %function
PendSV_Handler:
.LFB34:
	.loc 2 84 1
	.cfi_startproc
	@ args = 0, pretend = 0, frame = 0
	@ frame_needed = 1, uses_anonymous_args = 0
	push	{r7, lr}
	.cfi_def_cfa_offset 8
	.cfi_offset 7, -8
	.cfi_offset 14, -4
	add	r7, sp, #0
	.cfi_def_cfa_register 7
	.loc 2 85 5
	.syntax unified
@ 85 "src/kernel.c" 1
	MRS   r0,  psp      
	STMDB r0!, {r4-r11} 
	
@ 0 "" 2
	.loc 2 87 34
	.thumb
	.syntax unified
	ldr	r3, .L41
	ldr	r2, [r3]
	ldr	r1, .L41+4
	mov	r3, r2
	lsls	r3, r3, #1
	add	r3, r3, r2
	lsls	r3, r3, #3
	add	r3, r3, r1
	adds	r3, r3, #16
	ldrb	r3, [r3]	@ zero_extendqisi2
	.loc 2 87 8
	cmp	r3, #4
	beq	.L38
	.loc 2 87 83 discriminator 1
	ldr	r3, .L41
	ldr	r2, [r3]
	ldr	r1, .L41+4
	mov	r3, r2
	lsls	r3, r3, #1
	add	r3, r3, r2
	lsls	r3, r3, #3
	add	r3, r3, r1
	adds	r3, r3, #16
	ldrb	r3, [r3]	@ zero_extendqisi2
	.loc 2 87 55 discriminator 1
	cmp	r3, #1
	beq	.L38
	.loc 2 89 9
	ldr	r3, .L41
	ldr	r2, [r3]
	.syntax unified
@ 89 "src/kernel.c" 1
	mrs r1, psp 
	
@ 0 "" 2
	.thumb
	.syntax unified
	ldr	r0, .L41+4
	mov	r3, r2
	lsls	r3, r3, #1
	add	r3, r3, r2
	lsls	r3, r3, #3
	add	r3, r3, r0
	adds	r3, r3, #4
	str	r1, [r3]
	.loc 2 90 76
	ldr	r3, .L41
	ldr	r2, [r3]
	ldr	r1, .L41+4
	mov	r3, r2
	lsls	r3, r3, #1
	add	r3, r3, r2
	lsls	r3, r3, #3
	add	r3, r3, r1
	adds	r3, r3, #4
	ldr	r1, [r3]
	.loc 2 90 33
	ldr	r3, .L41
	ldr	r2, [r3]
	.loc 2 90 76
	mov	r0, r1
	.loc 2 90 50
	ldr	r1, .L41+4
	mov	r3, r2
	lsls	r3, r3, #1
	add	r3, r3, r2
	lsls	r3, r3, #3
	add	r3, r3, r1
	adds	r3, r3, #8
	str	r0, [r3]
	.loc 2 91 33
	ldr	r3, .L41
	ldr	r2, [r3]
	.loc 2 91 40
	ldr	r1, .L41+4
	mov	r3, r2
	lsls	r3, r3, #1
	add	r3, r3, r2
	lsls	r3, r3, #3
	add	r3, r3, r1
	adds	r3, r3, #16
	movs	r2, #3
	strb	r2, [r3]
.L38:
	.loc 2 93 21
	ldr	r3, .L41+8
	ldr	r3, [r3]
	ldr	r2, .L41
	str	r3, [r2]
	.loc 2 95 33
	ldr	r3, .L41
	ldr	r2, [r3]
	ldr	r1, .L41+4
	mov	r3, r2
	lsls	r3, r3, #1
	add	r3, r3, r2
	lsls	r3, r3, #3
	add	r3, r3, r1
	adds	r3, r3, #16
	ldrb	r3, [r3]	@ zero_extendqisi2
	.loc 2 95 8
	cmp	r3, #3
	bne	.L39
	.loc 2 97 9
	ldr	r3, .L41
	ldr	r2, [r3]
	ldr	r1, .L41+4
	mov	r3, r2
	lsls	r3, r3, #1
	add	r3, r3, r2
	lsls	r3, r3, #3
	add	r3, r3, r1
	adds	r3, r3, #4
	ldr	r3, [r3]
	.syntax unified
@ 97 "src/kernel.c" 1
	msr psp, r3 
	
@ 0 "" 2
	.loc 2 98 33
	.thumb
	.syntax unified
	ldr	r3, .L41
	ldr	r2, [r3]
	.loc 2 98 40
	ldr	r1, .L41+4
	mov	r3, r2
	lsls	r3, r3, #1
	add	r3, r3, r2
	lsls	r3, r3, #3
	add	r3, r3, r1
	adds	r3, r3, #16
	movs	r2, #2
	strb	r2, [r3]
	.loc 2 99 9
	.syntax unified
@ 99 "src/kernel.c" 1
	MRS   r0,  psp      
	LDMIA r0!, {r4-r11} 
	
@ 0 "" 2
	.loc 2 100 9
	.thumb
	.syntax unified
	bl	__ISB
	.loc 2 101 9
	b	.L37
.L39:
	.loc 2 104 33
	ldr	r3, .L41
	ldr	r2, [r3]
	ldr	r1, .L41+4
	mov	r3, r2
	lsls	r3, r3, #1
	add	r3, r3, r2
	lsls	r3, r3, #3
	add	r3, r3, r1
	adds	r3, r3, #16
	ldrb	r3, [r3]	@ zero_extendqisi2
	.loc 2 104 8
	cmp	r3, #1
	bne	.L37
	.loc 2 106 9
	ldr	r3, .L41
	ldr	r2, [r3]
	ldr	r1, .L41+4
	mov	r3, r2
	lsls	r3, r3, #1
	add	r3, r3, r2
	lsls	r3, r3, #3
	add	r3, r3, r1
	ldr	r3, [r3]
	.syntax unified
@ 106 "src/kernel.c" 1
	msr psp, r3 
	
@ 0 "" 2
	.loc 2 107 33
	.thumb
	.syntax unified
	ldr	r3, .L41
	ldr	r2, [r3]
	.loc 2 107 40
	ldr	r1, .L41+4
	mov	r3, r2
	lsls	r3, r3, #1
	add	r3, r3, r2
	lsls	r3, r3, #3
	add	r3, r3, r1
	adds	r3, r3, #16
	movs	r2, #2
	strb	r2, [r3]
	.loc 2 108 9
	nop
.L37:
	.loc 2 110 1
	pop	{r7, pc}
.L42:
	.align	2
.L41:
	.word	current_task_ID
	.word	threads
	.word	next_task_ID
	.cfi_endproc
.LFE34:
	.size	PendSV_Handler, .-PendSV_Handler
	.align	1
	.global	SysTick_Handler
	.syntax unified
	.thumb
	.thumb_func
	.fpu softvfp
	.type	SysTick_Handler, %function
SysTick_Handler:
.LFB35:
	.loc 2 112 1
	.cfi_startproc
	@ args = 0, pretend = 0, frame = 0
	@ frame_needed = 1, uses_anonymous_args = 0
	push	{r7, lr}
	.cfi_def_cfa_offset 8
	.cfi_offset 7, -8
	.cfi_offset 14, -4
	add	r7, sp, #0
	.cfi_def_cfa_register 7
	.loc 2 113 5
	bl	SelectNextTask
	.loc 2 114 5
	ldr	r3, .L44
	ldr	r3, [r3, #4]
	ldr	r2, .L44
	orr	r3, r3, #268435456
	str	r3, [r2, #4]
	.loc 2 115 1
	nop
	pop	{r7, pc}
.L45:
	.align	2
.L44:
	.word	-536810240
	.cfi_endproc
.LFE35:
	.size	SysTick_Handler, .-SysTick_Handler
	.align	1
	.global	SVC_Handler
	.syntax unified
	.thumb
	.thumb_func
	.fpu softvfp
	.type	SVC_Handler, %function
SVC_Handler:
.LFB36:
	.loc 2 118 1
	.cfi_startproc
	@ args = 0, pretend = 0, frame = 0
	@ frame_needed = 1, uses_anonymous_args = 0
	push	{r7, lr}
	.cfi_def_cfa_offset 8
	.cfi_offset 7, -8
	.cfi_offset 14, -4
	add	r7, sp, #0
	.cfi_def_cfa_register 7
	.loc 2 120 18
	bl	GetSvcNumber
	mov	r2, r0
	.loc 2 120 16
	ldr	r3, .L55
	str	r2, [r3]
	.loc 2 121 5
	ldr	r3, .L55
	ldr	r3, [r3]
	cmp	r3, #109
	beq	.L47
	cmp	r3, #109
	bhi	.L48
	cmp	r3, #0
	beq	.L49
	cmp	r3, #1
	beq	.L50
.LBB2:
	.loc 2 148 9
	b	.L54
.L48:
.LBE2:
	.loc 2 121 5
	cmp	r3, #110
	beq	.L52
	cmp	r3, #112
	beq	.L53
.LBB3:
	.loc 2 148 9
	b	.L54
.L49:
	.loc 2 125 33
	ldr	r3, .L55+4
	ldr	r2, [r3]
	.loc 2 125 40
	ldr	r1, .L55+8
	mov	r3, r2
	lsls	r3, r3, #1
	add	r3, r3, r2
	lsls	r3, r3, #3
	add	r3, r3, r1
	adds	r3, r3, #16
	movs	r2, #4
	strb	r2, [r3]
	.loc 2 126 9
	bl	SelectNextTask
	.loc 2 128 9
	bl	PendSV_Handler
	.loc 2 129 9
	b	.L54
.L50:
	.loc 2 132 9
	bl	SelectNextTask
	.loc 2 133 9
	bl	PendSV_Handler
	.loc 2 135 9
	b	.L54
.L47:
	.loc 2 138 9
	movs	r2, #0
	movs	r1, #32
	ldr	r0, .L55+12
	bl	GPIO_WriteBit
	.loc 2 139 9
	b	.L54
.L52:
	.loc 2 142 9
	movs	r2, #1
	movs	r1, #32
	ldr	r0, .L55+12
	bl	GPIO_WriteBit
	.loc 2 143 9
	b	.L54
.L53:
	.loc 2 145 9
	bl	start_uart
	.loc 2 146 9
	nop
.L54:
.LBE3:
	.loc 2 150 1
	nop
	pop	{r7, pc}
.L56:
	.align	2
.L55:
	.word	svc_number
	.word	current_task_ID
	.word	threads
	.word	1073809408
	.cfi_endproc
.LFE36:
	.size	SVC_Handler, .-SVC_Handler
	.align	1
	.global	GetSvcNumber
	.syntax unified
	.thumb
	.thumb_func
	.fpu softvfp
	.type	GetSvcNumber, %function
GetSvcNumber:
.LFB37:
	.loc 2 153 1
	.cfi_startproc
	@ args = 0, pretend = 0, frame = 8
	@ frame_needed = 1, uses_anonymous_args = 0
	@ link register save eliminated.
	push	{r7}
	.cfi_def_cfa_offset 4
	.cfi_offset 7, -4
	sub	sp, sp, #12
	.cfi_def_cfa_offset 16
	add	r7, sp, #0
	.cfi_def_cfa_register 7
	.loc 2 154 15
	movs	r3, #0
	str	r3, [r7, #4]
	.loc 2 155 5
	.syntax unified
@ 155 "src/kernel.c" 1
	MRS R0, PSP
	MOV r3, R0
@ 0 "" 2
	.thumb
	.syntax unified
	str	r3, [r7, #4]
	.loc 2 158 27
	ldr	r3, [r7, #4]
	adds	r3, r3, #24
	.loc 2 158 31
	ldr	r3, [r3]
	subs	r3, r3, #2
	ldrb	r3, [r3]	@ zero_extendqisi2
	.loc 2 159 1
	mov	r0, r3
	adds	r7, r7, #12
	.cfi_def_cfa_offset 4
	mov	sp, r7
	.cfi_def_cfa_register 13
	@ sp needed
	pop	{r7}
	.cfi_restore 7
	.cfi_def_cfa_offset 0
	bx	lr
	.cfi_endproc
.LFE37:
	.size	GetSvcNumber, .-GetSvcNumber
	.align	1
	.global	start_uart
	.syntax unified
	.thumb
	.thumb_func
	.fpu softvfp
	.type	start_uart, %function
start_uart:
.LFB38:
	.loc 2 168 1
	.cfi_startproc
	@ args = 0, pretend = 0, frame = 24
	@ frame_needed = 1, uses_anonymous_args = 0
	push	{r7, lr}
	.cfi_def_cfa_offset 8
	.cfi_offset 7, -8
	.cfi_offset 14, -4
	sub	sp, sp, #24
	.cfi_def_cfa_offset 32
	add	r7, sp, #0
	.cfi_def_cfa_register 7
	.loc 2 169 5
	movs	r1, #1
	movs	r0, #1
	bl	RCC_APB2PeriphClockCmd
	.loc 2 170 5
	movs	r1, #1
	mov	r0, #131072
	bl	RCC_APB1PeriphClockCmd
	.loc 2 173 5
	add	r3, r7, #20
	mov	r0, r3
	bl	GPIO_StructInit
	.loc 2 174 19
	movs	r3, #4
	strh	r3, [r7, #20]	@ movhi
	.loc 2 175 20
	movs	r3, #24
	strb	r3, [r7, #23]
	.loc 2 176 5
	add	r3, r7, #20
	mov	r1, r3
	ldr	r0, .L61
	bl	GPIO_Init
	.loc 2 178 19
	movs	r3, #8
	strh	r3, [r7, #20]	@ movhi
	.loc 2 179 20
	movs	r3, #4
	strb	r3, [r7, #23]
	.loc 2 180 5
	add	r3, r7, #20
	mov	r1, r3
	ldr	r0, .L61
	bl	GPIO_Init
	.loc 2 184 5
	adds	r3, r7, #4
	mov	r0, r3
	bl	USART_StructInit
	.loc 2 185 25
	mov	r3, #115200
	str	r3, [r7, #4]
	.loc 2 186 5
	adds	r3, r7, #4
	mov	r1, r3
	ldr	r0, .L61+4
	bl	USART_Init
	.loc 2 188 5
	movs	r1, #1
	ldr	r0, .L61+4
	bl	USART_Cmd
	.loc 2 189 5
	nop
	.loc 2 190 1
	adds	r7, r7, #24
	.cfi_def_cfa_offset 8
	mov	sp, r7
	.cfi_def_cfa_register 13
	@ sp needed
	pop	{r7, pc}
.L62:
	.align	2
.L61:
	.word	1073809408
	.word	1073759232
	.cfi_endproc
.LFE38:
	.size	start_uart, .-start_uart
.Letext0:
	.file 3 "/home/witek/CODE/arm/gnu/arm-none-eabi/include/machine/_default_types.h"
	.file 4 "/home/witek/CODE/arm/gnu/arm-none-eabi/include/sys/_stdint.h"
	.file 5 "/home/witek/CODE/arm/STM32F10x_StdPeriph_Lib_V3.5.0/Libraries/CMSIS/CM3/DeviceSupport/ST/STM32F10x/stm32f10x.h"
	.file 6 "/home/witek/CODE/arm/STM32F10x_StdPeriph_Lib_V3.5.0/Libraries/CMSIS/CM3/DeviceSupport/ST/STM32F10x/system_stm32f10x.h"
	.file 7 "/home/witek/CODE/arm/STM32F10x_StdPeriph_Lib_V3.5.0/Libraries/STM32F10x_StdPeriph_Driver/inc/stm32f10x_gpio.h"
	.file 8 "/home/witek/CODE/arm/STM32F10x_StdPeriph_Lib_V3.5.0/Libraries/STM32F10x_StdPeriph_Driver/inc/stm32f10x_usart.h"
	.file 9 "./inc/kernel.h"